target datalayout = "e-m:e-p270:32:32-p271:32:32-p272:64:64-i64:64-i128:128-f80:128-n8:16:32:64-S128"
target triple = "x86_64-pc-linux-gnu"

%struct.PsqlScanStateData = type { ptr, ptr, ptr, ptr, ptr, ptr, i32, i8, i8, ptr, ptr, i32, i32, i32, i32, ptr, i32, [4 x i8], i32, ptr, ptr }
%struct.StackElem = type { ptr, ptr, ptr, ptr, ptr }

; Function Attrs: nounwind uwtable
define dso_local void @psqlscan_select_top_buffer(ptr noundef %0) #0 {
  %2 = alloca ptr, align 8
  %3 = alloca ptr, align 8
  store ptr %0, ptr %2, align 8
  call void @llvm.lifetime.start.p0(i64 8, ptr %3) #12
  %4 = load ptr, ptr %2, align 8
  %5 = getelementptr inbounds nuw %struct.PsqlScanStateData, ptr %4, i32 0, i32 2
  %6 = load ptr, ptr %5, align 8
  store ptr %6, ptr %3, align 8
  %7 = load ptr, ptr %3, align 8
  %8 = icmp ne ptr %7, null
  br i1 %8, label %9, label %37

9:                                                ; preds = %1
  %10 = load ptr, ptr %3, align 8
  %11 = getelementptr inbounds nuw %struct.StackElem, ptr %10, i32 0, i32 0
  %12 = load ptr, ptr %11, align 8
  %13 = load ptr, ptr %2, align 8
  %14 = getelementptr inbounds nuw %struct.PsqlScanStateData, ptr %13, i32 0, i32 0
  %15 = load ptr, ptr %14, align 8
  call void @psql_yy_switch_to_buffer(ptr noundef %12, ptr noundef %15)
  %16 = load ptr, ptr %3, align 8
  %17 = getelementptr inbounds nuw %struct.StackElem, ptr %16, i32 0, i32 1
  %18 = load ptr, ptr %17, align 8
  %19 = load ptr, ptr %2, align 8
  %20 = getelementptr inbounds nuw %struct.PsqlScanStateData, ptr %19, i32 0, i32 9
  store ptr %18, ptr %20, align 8
  %21 = load ptr, ptr %3, align 8
  %22 = getelementptr inbounds nuw %struct.StackElem, ptr %21, i32 0, i32 2
  %23 = load ptr, ptr %22, align 8
  %24 = icmp ne ptr %23, null
  br i1 %24, label %25, label %29

25:                                               ; preds = %9
  %26 = load ptr, ptr %3, align 8
  %27 = getelementptr inbounds nuw %struct.StackElem, ptr %26, i32 0, i32 2
  %28 = load ptr, ptr %27, align 8
  br label %33

29:                                               ; preds = %9
  %30 = load ptr, ptr %3, align 8
  %31 = getelementptr inbounds nuw %struct.StackElem, ptr %30, i32 0, i32 1
  %32 = load ptr, ptr %31, align 8
  br label %33

33:                                               ; preds = %29, %25
  %34 = phi ptr [ %28, %25 ], [ %32, %29 ]
  %35 = load ptr, ptr %2, align 8
  %36 = getelementptr inbounds nuw %struct.PsqlScanStateData, ptr %35, i32 0, i32 10
  store ptr %34, ptr %36, align 8
  br label %54

37:                                               ; preds = %1
  %38 = load ptr, ptr %2, align 8
  %39 = getelementptr inbounds nuw %struct.PsqlScanStateData, ptr %38, i32 0, i32 3
  %40 = load ptr, ptr %39, align 8
  %41 = load ptr, ptr %2, align 8
  %42 = getelementptr inbounds nuw %struct.PsqlScanStateData, ptr %41, i32 0, i32 0
  %43 = load ptr, ptr %42, align 8
  call void @psql_yy_switch_to_buffer(ptr noundef %40, ptr noundef %43)
  %44 = load ptr, ptr %2, align 8
  %45 = getelementptr inbounds nuw %struct.PsqlScanStateData, ptr %44, i32 0, i32 4
  %46 = load ptr, ptr %45, align 8
  %47 = load ptr, ptr %2, align 8
  %48 = getelementptr inbounds nuw %struct.PsqlScanStateData, ptr %47, i32 0, i32 9
  store ptr %46, ptr %48, align 8
  %49 = load ptr, ptr %2, align 8
  %50 = getelementptr inbounds nuw %struct.PsqlScanStateData, ptr %49, i32 0, i32 5
  %51 = load ptr, ptr %50, align 8
  %52 = load ptr, ptr %2, align 8
  %53 = getelementptr inbounds nuw %struct.PsqlScanStateData, ptr %52, i32 0, i32 10
  store ptr %51, ptr %53, align 8
  br label %54

54:                                               ; preds = %37, %33
  call void @llvm.lifetime.end.p0(i64 8, ptr %3) #12
  ret void
}