; Function Attrs: nounwind uwtable
define dso_local void @psqlscan_select_top_buffer(ptr noundef captures(none) initializes((56, 72)) %0) local_unnamed_addr #0 {
  %2 = getelementptr inbounds nuw i8, ptr %0, i64 16
  %3 = load ptr, ptr %2, align 8
  %.not = icmp eq ptr %3, null
  br i1 %.not, label %12, label %4

4:                                                ; preds = %1
  %5 = load ptr, ptr %3, align 8
  %6 = load ptr, ptr %0, align 8
  tail call void @psql_yy_switch_to_buffer(ptr noundef %5, ptr noundef %6)
  %7 = getelementptr inbounds nuw i8, ptr %3, i64 8
  %8 = load ptr, ptr %7, align 8
  %9 = getelementptr inbounds nuw i8, ptr %0, i64 56
  store ptr %8, ptr %9, align 8
  %10 = getelementptr inbounds nuw i8, ptr %3, i64 16
  %11 = load ptr, ptr %10, align 8
  %.not17 = icmp eq ptr %11, null
  %spec.select = select i1 %.not17, ptr %8, ptr %11
  br label %21

12:                                               ; preds = %1
  %13 = getelementptr inbounds nuw i8, ptr %0, i64 24
  %14 = load ptr, ptr %13, align 8
  %15 = load ptr, ptr %0, align 8
  tail call void @psql_yy_switch_to_buffer(ptr noundef %14, ptr noundef %15)
  %16 = getelementptr inbounds nuw i8, ptr %0, i64 32
  %17 = load ptr, ptr %16, align 8
  %18 = getelementptr inbounds nuw i8, ptr %0, i64 56
  store ptr %17, ptr %18, align 8
  %19 = getelementptr inbounds nuw i8, ptr %0, i64 40
  %20 = load ptr, ptr %19, align 8
  br label %21

21:                                               ; preds = %12, %4
  %.sink = phi ptr [ %20, %12 ], [ %spec.select, %4 ]
  %22 = getelementptr inbounds nuw i8, ptr %0, i64 64
  store ptr %.sink, ptr %22, align 8
  ret void
}